; Function Attrs: mustprogress uwtable
define hidden noundef ptr @_ZN10duckdb_re26Regexp10ParseState8DoFinishEv(ptr noundef nonnull align 8 captures(none) dereferenceable(48) %0) local_unnamed_addr #9 align 2 personality ptr @__gxx_personality_v0 {
  %2 = tail call noundef zeroext i1 @_ZN10duckdb_re26Regexp10ParseState13DoVerticalBarEv(ptr noundef nonnull align 8 dereferenceable(48) %0)
  %3 = getelementptr inbounds nuw i8, ptr %0, i64 32
  %4 = load ptr, ptr %3, align 8, !tbaa !20
  %5 = getelementptr inbounds nuw i8, ptr %4, i64 16
  %6 = load ptr, ptr %5, align 8, !tbaa !23
  store ptr %6, ptr %3, align 8, !tbaa !20
  tail call void @_ZN10duckdb_re26Regexp6DecrefEv(ptr noundef nonnull align 8 dereferenceable(40) %4)
  tail call void @_ZN10duckdb_re26Regexp10ParseState10DoCollapseENS_8RegexpOpE(ptr noundef nonnull align 8 dereferenceable(48) %0, i32 noundef 6)
  %7 = load ptr, ptr %3, align 8, !tbaa !20
  %.not = icmp eq ptr %7, null
  br i1 %.not, label %_ZN10duckdb_re26Regexp10ParseState12FinishRegexpEPS0_.exit, label %8

8:                                                ; preds = %1
  %9 = getelementptr inbounds nuw i8, ptr %7, i64 16
  %10 = load ptr, ptr %9, align 8, !tbaa !23
  %.not7 = icmp eq ptr %10, null
  br i1 %.not7, label %11, label %26

11:                                               ; preds = %8
  store ptr null, ptr %3, align 8, !tbaa !20
  %12 = load i8, ptr %7, align 8, !tbaa !26
  %13 = icmp eq i8 %12, 20
  br i1 %13, label %14, label %_ZN10duckdb_re26Regexp10ParseState12FinishRegexpEPS0_.exit

14:                                               ; preds = %11
  %15 = getelementptr inbounds nuw i8, ptr %7, i64 32
  %16 = load ptr, ptr %15, align 8, !tbaa !27
  %.not.i = icmp eq ptr %16, null
  br i1 %.not.i, label %_ZN10duckdb_re26Regexp10ParseState12FinishRegexpEPS0_.exit, label %17

17:                                               ; preds = %14
  %18 = getelementptr inbounds nuw i8, ptr %7, i64 24
  store ptr null, ptr %15, align 8, !tbaa !27
  %19 = tail call noundef ptr @_ZN10duckdb_re216CharClassBuilder12GetCharClassEv(ptr noundef nonnull align 8 dereferenceable(64) %16)
  store ptr %19, ptr %18, align 8, !tbaa !27
  %20 = getelementptr inbounds nuw i8, ptr %16, i64 16
  %21 = getelementptr inbounds nuw i8, ptr %16, i64 32
  %22 = load ptr, ptr %21, align 8, !tbaa !34
  invoke void @_ZNSt8_Rb_treeIN10duckdb_re29RuneRangeES1_St9_IdentityIS1_ENS0_13RuneRangeLessESaIS1_EE8_M_eraseEPSt13_Rb_tree_nodeIS1_E(ptr noundef nonnull align 8 dereferenceable(48) %20, ptr noundef %22)
          to label %_ZN10duckdb_re216CharClassBuilderD2Ev.exit.i unwind label %23

23:                                               ; preds = %17
  %24 = landingpad { ptr, i32 }
          catch ptr null
  %25 = extractvalue { ptr, i32 } %24, 0
  tail call void @__clang_call_terminate(ptr %25) #31
  unreachable

_ZN10duckdb_re216CharClassBuilderD2Ev.exit.i:     ; preds = %17
  tail call void @_ZdlPv(ptr noundef nonnull %16) #30
  br label %_ZN10duckdb_re26Regexp10ParseState12FinishRegexpEPS0_.exit

26:                                               ; preds = %8
  %27 = getelementptr inbounds nuw i8, ptr %0, i64 24
  %28 = load ptr, ptr %27, align 8, !tbaa !19
  store i32 6, ptr %28, align 8, !tbaa !58
  %29 = getelementptr inbounds nuw i8, ptr %0, i64 8
  %30 = getelementptr inbounds nuw i8, ptr %28, i64 8
  tail call void @llvm.memcpy.p0.p0.i64(ptr noundef nonnull align 8 dereferenceable(16) %30, ptr noundef nonnull align 8 dereferenceable(16) %29, i64 16, i1 false), !tbaa.struct !16
  br label %_ZN10duckdb_re26Regexp10ParseState12FinishRegexpEPS0_.exit

_ZN10duckdb_re26Regexp10ParseState12FinishRegexpEPS0_.exit: ; preds = %1, %_ZN10duckdb_re216CharClassBuilderD2Ev.exit.i, %14, %11, %26
  %.0 = phi ptr [ null, %26 ], [ %7, %11 ], [ %7, %14 ], [ %7, %_ZN10duckdb_re216CharClassBuilderD2Ev.exit.i ], [ null, %1 ]
  ret ptr %.0
}